target datalayout = "e-m:e-p270:32:32-p271:32:32-p272:64:64-i64:64-i128:128-f80:128-n8:16:32:64-S128"
target triple = "x86_64-pc-linux-gnu"

%struct.__storeu_ps = type { <4 x float> }
%struct.__loadu_si128 = type { <2 x i64> }

; Function Attrs: alwaysinline nounwind uwtable
define internal void @_mm_storeu_ps(ptr noundef %0, <4 x float> noundef %1) #13 {
  %3 = alloca ptr, align 8
  %4 = alloca <4 x float>, align 16
  store ptr %0, ptr %3, align 8
  store <4 x float> %1, ptr %4, align 16
  %5 = load <4 x float>, ptr %4, align 16
  %6 = load ptr, ptr %3, align 8
  %7 = getelementptr inbounds nuw %struct.__storeu_ps, ptr %6, i32 0, i32 0
  store <4 x float> %5, ptr %7, align 1
  ret void
}

; Function Attrs: alwaysinline nounwind uwtable
define internal <4 x float> @_mm_cvtepi32_ps(<2 x i64> noundef %0) #13 {
  %2 = alloca <2 x i64>, align 16
  store <2 x i64> %0, ptr %2, align 16
  %3 = load <2 x i64>, ptr %2, align 16
  %4 = bitcast <2 x i64> %3 to <4 x i32>
  %5 = sitofp <4 x i32> %4 to <4 x float>
  ret <4 x float> %5
}

; Function Attrs: alwaysinline nounwind uwtable
define internal <2 x i64> @_mm_unpackhi_epi16(<2 x i64> noundef %0, <2 x i64> noundef %1) #13 {
  %3 = alloca <2 x i64>, align 16
  %4 = alloca <2 x i64>, align 16
  store <2 x i64> %0, ptr %3, align 16
  store <2 x i64> %1, ptr %4, align 16
  %5 = load <2 x i64>, ptr %3, align 16
  %6 = bitcast <2 x i64> %5 to <8 x i16>
  %7 = load <2 x i64>, ptr %4, align 16
  %8 = bitcast <2 x i64> %7 to <8 x i16>
  %9 = shufflevector <8 x i16> %6, <8 x i16> %8, <8 x i32> <i32 4, i32 12, i32 5, i32 13, i32 6, i32 14, i32 7, i32 15>
  %10 = bitcast <8 x i16> %9 to <2 x i64>
  ret <2 x i64> %10
}

; Function Attrs: alwaysinline nounwind uwtable
define internal <2 x i64> @_mm_unpacklo_epi16(<2 x i64> noundef %0, <2 x i64> noundef %1) #13 {
  %3 = alloca <2 x i64>, align 16
  %4 = alloca <2 x i64>, align 16
  store <2 x i64> %0, ptr %3, align 16
  store <2 x i64> %1, ptr %4, align 16
  %5 = load <2 x i64>, ptr %3, align 16
  %6 = bitcast <2 x i64> %5 to <8 x i16>
  %7 = load <2 x i64>, ptr %4, align 16
  %8 = bitcast <2 x i64> %7 to <8 x i16>
  %9 = shufflevector <8 x i16> %6, <8 x i16> %8, <8 x i32> <i32 0, i32 8, i32 1, i32 9, i32 2, i32 10, i32 3, i32 11>
  %10 = bitcast <8 x i16> %9 to <2 x i64>
  ret <2 x i64> %10
}

; Function Attrs: alwaysinline nounwind uwtable
define internal <2 x i64> @_mm_setzero_si128() #13 {
  %1 = alloca <2 x i64>, align 16
  store <2 x i64> zeroinitializer, ptr %1, align 16
  %2 = load <2 x i64>, ptr %1, align 16
  ret <2 x i64> %2
}

; Function Attrs: alwaysinline nounwind uwtable
define internal <2 x i64> @_mm_loadu_si128(ptr noundef %0) #13 {
  %2 = alloca ptr, align 8
  store ptr %0, ptr %2, align 8
  %3 = load ptr, ptr %2, align 8
  %4 = getelementptr inbounds nuw %struct.__loadu_si128, ptr %3, i32 0, i32 0
  %5 = load <2 x i64>, ptr %4, align 1
  ret <2 x i64> %5
}

; Function Attrs: nounwind uwtable
define internal void @stbir__decode_uint16_linear(ptr noundef %0, i32 noundef %1, ptr noundef %2) #12 {
  %4 = alloca ptr, align 8
  %5 = alloca i32, align 4
  %6 = alloca ptr, align 8
  %7 = alloca ptr, align 8
  %8 = alloca ptr, align 8
  %9 = alloca ptr, align 8
  %10 = alloca ptr, align 8
  %11 = alloca <2 x i64>, align 16
  %12 = alloca <2 x i64>, align 16
  %13 = alloca <2 x i64>, align 16
  %14 = alloca <4 x float>, align 16
  %15 = alloca <4 x float>, align 16
  %16 = alloca <2 x i64>, align 16
  %17 = alloca i32, align 4
  store ptr %0, ptr %4, align 8
  store i32 %1, ptr %5, align 4
  store ptr %2, ptr %6, align 8
  call void @llvm.lifetime.start.p0(i64 8, ptr %7) #19
  %18 = load ptr, ptr %4, align 8
  store ptr %18, ptr %7, align 8
  call void @llvm.lifetime.start.p0(i64 8, ptr %8) #19
  %19 = load ptr, ptr %7, align 8
  %20 = load i32, ptr %5, align 4
  %21 = sext i32 %20 to i64
  %22 = getelementptr inbounds float, ptr %19, i64 %21
  store ptr %22, ptr %8, align 8
  call void @llvm.lifetime.start.p0(i64 8, ptr %9) #19
  %23 = load ptr, ptr %6, align 8
  store ptr %23, ptr %9, align 8
  call void @llvm.lifetime.start.p0(i64 8, ptr %10) #19
  %24 = load ptr, ptr %9, align 8
  %25 = load i32, ptr %5, align 4
  %26 = sext i32 %25 to i64
  %27 = getelementptr inbounds i16, ptr %24, i64 %26
  %28 = getelementptr inbounds i16, ptr %27, i64 -8
  store ptr %28, ptr %10, align 8
  %29 = load i32, ptr %5, align 4
  %30 = icmp sge i32 %29, 8
  br i1 %30, label %31, label %76

31:                                               ; preds = %3
  %32 = load ptr, ptr %8, align 8
  %33 = getelementptr inbounds float, ptr %32, i64 -8
  store ptr %33, ptr %8, align 8
  br label %34

34:                                               ; preds = %74, %72, %31
  call void @llvm.lifetime.start.p0(i64 16, ptr %11) #19
  call void @llvm.lifetime.start.p0(i64 16, ptr %12) #19
  call void @llvm.lifetime.start.p0(i64 16, ptr %13) #19
  call void @llvm.lifetime.start.p0(i64 16, ptr %14) #19
  call void @llvm.lifetime.start.p0(i64 16, ptr %15) #19
  %35 = load ptr, ptr %7, align 8
  call void asm sideeffect "", "r,~{dirflag},~{fpsr},~{flags}"(ptr %35) #19, !srcloc !71
  %36 = load ptr, ptr %9, align 8
  %37 = call <2 x i64> @_mm_loadu_si128(ptr noundef %36)
  store <2 x i64> %37, ptr %11, align 16
  call void @llvm.lifetime.start.p0(i64 16, ptr %16) #19
  %38 = call <2 x i64> @_mm_setzero_si128()
  store <2 x i64> %38, ptr %16, align 16
  %39 = load <2 x i64>, ptr %11, align 16
  %40 = load <2 x i64>, ptr %16, align 16
  %41 = call <2 x i64> @_mm_unpacklo_epi16(<2 x i64> noundef %39, <2 x i64> noundef %40)
  store <2 x i64> %41, ptr %12, align 16
  %42 = load <2 x i64>, ptr %11, align 16
  %43 = load <2 x i64>, ptr %16, align 16
  %44 = call <2 x i64> @_mm_unpackhi_epi16(<2 x i64> noundef %42, <2 x i64> noundef %43)
  store <2 x i64> %44, ptr %13, align 16
  call void @llvm.lifetime.end.p0(i64 16, ptr %16) #19
  %45 = load <2 x i64>, ptr %12, align 16
  %46 = call <4 x float> @_mm_cvtepi32_ps(<2 x i64> noundef %45)
  store <4 x float> %46, ptr %14, align 16
  %47 = load <2 x i64>, ptr %13, align 16
  %48 = call <4 x float> @_mm_cvtepi32_ps(<2 x i64> noundef %47)
  store <4 x float> %48, ptr %15, align 16
  %49 = load ptr, ptr %7, align 8
  %50 = getelementptr inbounds float, ptr %49, i64 0
  %51 = load <4 x float>, ptr %14, align 16
  call void @_mm_storeu_ps(ptr noundef %50, <4 x float> noundef %51)
  %52 = load ptr, ptr %7, align 8
  %53 = getelementptr inbounds float, ptr %52, i64 4
  %54 = load <4 x float>, ptr %15, align 16
  call void @_mm_storeu_ps(ptr noundef %53, <4 x float> noundef %54)
  %55 = load ptr, ptr %7, align 8
  %56 = getelementptr inbounds float, ptr %55, i64 8
  store ptr %56, ptr %7, align 8
  %57 = load ptr, ptr %9, align 8
  %58 = getelementptr inbounds i16, ptr %57, i64 8
  store ptr %58, ptr %9, align 8
  %59 = load ptr, ptr %7, align 8
  %60 = load ptr, ptr %8, align 8
  %61 = icmp ule ptr %59, %60
  br i1 %61, label %62, label %63

62:                                               ; preds = %34
  store i32 3, ptr %17, align 4
  br label %72, !llvm.loop !72

63:                                               ; preds = %34
  %64 = load ptr, ptr %7, align 8
  %65 = load ptr, ptr %8, align 8
  %66 = getelementptr inbounds float, ptr %65, i64 8
  %67 = icmp eq ptr %64, %66
  br i1 %67, label %68, label %69

68:                                               ; preds = %63
  store i32 2, ptr %17, align 4
  br label %72

69:                                               ; preds = %63
  %70 = load ptr, ptr %8, align 8
  store ptr %70, ptr %7, align 8
  %71 = load ptr, ptr %10, align 8
  store ptr %71, ptr %9, align 8
  store i32 0, ptr %17, align 4
  br label %72

72:                                               ; preds = %69, %68, %62
  call void @llvm.lifetime.end.p0(i64 16, ptr %15) #19
  call void @llvm.lifetime.end.p0(i64 16, ptr %14) #19
  call void @llvm.lifetime.end.p0(i64 16, ptr %13) #19
  call void @llvm.lifetime.end.p0(i64 16, ptr %12) #19
  call void @llvm.lifetime.end.p0(i64 16, ptr %11) #19
  %73 = load i32, ptr %17, align 4
  switch i32 %73, label %136 [
    i32 0, label %74
    i32 3, label %34
    i32 2, label %75
  ]

74:                                               ; preds = %72
  br label %34, !llvm.loop !72

75:                                               ; preds = %72
  store i32 1, ptr %17, align 4
  br label %133

76:                                               ; preds = %3
  %77 = load ptr, ptr %7, align 8
  %78 = getelementptr inbounds float, ptr %77, i64 4
  store ptr %78, ptr %7, align 8
  br label %79

79:                                               ; preds = %83, %76
  %80 = load ptr, ptr %7, align 8
  %81 = load ptr, ptr %8, align 8
  %82 = icmp ule ptr %80, %81
  br i1 %82, label %83, label %113

83:                                               ; preds = %79
  %84 = load ptr, ptr %7, align 8
  call void asm sideeffect "", "r,~{dirflag},~{fpsr},~{flags}"(ptr %84) #19, !srcloc !73
  %85 = load ptr, ptr %9, align 8
  %86 = getelementptr inbounds i16, ptr %85, i64 0
  %87 = load i16, ptr %86, align 2
  %88 = uitofp i16 %87 to float
  %89 = load ptr, ptr %7, align 8
  %90 = getelementptr inbounds float, ptr %89, i64 -4
  store float %88, ptr %90, align 4
  %91 = load ptr, ptr %9, align 8
  %92 = getelementptr inbounds i16, ptr %91, i64 1
  %93 = load i16, ptr %92, align 2
  %94 = uitofp i16 %93 to float
  %95 = load ptr, ptr %7, align 8
  %96 = getelementptr inbounds float, ptr %95, i64 -3
  store float %94, ptr %96, align 4
  %97 = load ptr, ptr %9, align 8
  %98 = getelementptr inbounds i16, ptr %97, i64 2
  %99 = load i16, ptr %98, align 2
  %100 = uitofp i16 %99 to float
  %101 = load ptr, ptr %7, align 8
  %102 = getelementptr inbounds float, ptr %101, i64 -2
  store float %100, ptr %102, align 4
  %103 = load ptr, ptr %9, align 8
  %104 = getelementptr inbounds i16, ptr %103, i64 3
  %105 = load i16, ptr %104, align 2
  %106 = uitofp i16 %105 to float
  %107 = load ptr, ptr %7, align 8
  %108 = getelementptr inbounds float, ptr %107, i64 -1
  store float %106, ptr %108, align 4
  %109 = load ptr, ptr %7, align 8
  %110 = getelementptr inbounds float, ptr %109, i64 4
  store ptr %110, ptr %7, align 8
  %111 = load ptr, ptr %9, align 8
  %112 = getelementptr inbounds i16, ptr %111, i64 4
  store ptr %112, ptr %9, align 8
  br label %79, !llvm.loop !74

113:                                              ; preds = %79
  %114 = load ptr, ptr %7, align 8
  %115 = getelementptr inbounds float, ptr %114, i64 -4
  store ptr %115, ptr %7, align 8
  br label %116

116:                                              ; preds = %120, %113
  %117 = load ptr, ptr %7, align 8
  %118 = load ptr, ptr %8, align 8
  %119 = icmp ult ptr %117, %118
  br i1 %119, label %120, label %132

120:                                              ; preds = %116
  %121 = load ptr, ptr %7, align 8
  call void asm sideeffect "", "r,~{dirflag},~{fpsr},~{flags}"(ptr %121) #19, !srcloc !75
  %122 = load ptr, ptr %9, align 8
  %123 = getelementptr inbounds i16, ptr %122, i64 0
  %124 = load i16, ptr %123, align 2
  %125 = uitofp i16 %124 to float
  %126 = load ptr, ptr %7, align 8
  %127 = getelementptr inbounds float, ptr %126, i64 0
  store float %125, ptr %127, align 4
  %128 = load ptr, ptr %7, align 8
  %129 = getelementptr inbounds float, ptr %128, i64 1
  store ptr %129, ptr %7, align 8
  %130 = load ptr, ptr %9, align 8
  %131 = getelementptr inbounds i16, ptr %130, i64 1
  store ptr %131, ptr %9, align 8
  br label %116, !llvm.loop !76

132:                                              ; preds = %116
  store i32 0, ptr %17, align 4
  br label %133

133:                                              ; preds = %132, %75
  call void @llvm.lifetime.end.p0(i64 8, ptr %10) #19
  call void @llvm.lifetime.end.p0(i64 8, ptr %9) #19
  call void @llvm.lifetime.end.p0(i64 8, ptr %8) #19
  call void @llvm.lifetime.end.p0(i64 8, ptr %7) #19
  %134 = load i32, ptr %17, align 4
  switch i32 %134, label %136 [
    i32 0, label %135
    i32 1, label %135
  ]

135:                                              ; preds = %133, %133
  ret void

136:                                              ; preds = %133, %72
  unreachable
}