; Function Attrs: nounwind uwtable
define internal void @stbir__decode_uint16_linear(ptr noundef %0, i32 noundef %1, ptr noundef readonly captures(none) %2) #22 {
  %4 = sext i32 %1 to i64
  %.idx = shl nsw i64 %4, 2
  %5 = getelementptr inbounds i8, ptr %0, i64 %.idx
  %6 = getelementptr inbounds i16, ptr %2, i64 %4
  %7 = getelementptr inbounds i8, ptr %6, i64 -16
  %8 = icmp sgt i32 %1, 7
  br i1 %8, label %9, label %.preheader63

.preheader63:                                     ; preds = %3
  %.not65 = icmp slt i32 %1, 4
  br i1 %.not65, label %.preheader, label %.lr.ph.preheader

.lr.ph.preheader:                                 ; preds = %.preheader63
  %.264 = getelementptr inbounds nuw i8, ptr %0, i64 16
  br label %.lr.ph

9:                                                ; preds = %3
  %10 = getelementptr inbounds i8, ptr %5, i64 -32
  br label %11

11:                                               ; preds = %11, %9
  %.051 = phi ptr [ %2, %9 ], [ %.152, %11 ]
  %.050 = phi ptr [ %0, %9 ], [ %.1, %11 ]
  tail call void asm sideeffect "", "r,~{dirflag},~{fpsr},~{flags}"(ptr %.050) #54, !srcloc !93
  %12 = load <8 x i16>, ptr %.051, align 1
  %13 = shufflevector <8 x i16> %12, <8 x i16> <i16 0, i16 0, i16 0, i16 0, i16 poison, i16 poison, i16 poison, i16 poison>, <8 x i32> <i32 0, i32 8, i32 1, i32 9, i32 2, i32 10, i32 3, i32 11>
  %14 = shufflevector <8 x i16> %12, <8 x i16> <i16 poison, i16 poison, i16 poison, i16 poison, i16 0, i16 0, i16 0, i16 0>, <8 x i32> <i32 4, i32 12, i32 5, i32 13, i32 6, i32 14, i32 7, i32 15>
  %15 = bitcast <8 x i16> %13 to <4 x i32>
  %16 = uitofp nneg <4 x i32> %15 to <4 x float>
  %17 = bitcast <8 x i16> %14 to <4 x i32>
  %18 = uitofp nneg <4 x i32> %17 to <4 x float>
  store <4 x float> %16, ptr %.050, align 1
  %19 = getelementptr inbounds nuw i8, ptr %.050, i64 16
  store <4 x float> %18, ptr %19, align 1
  %20 = getelementptr inbounds nuw i8, ptr %.050, i64 32
  %21 = getelementptr inbounds nuw i8, ptr %.051, i64 16
  %.not59 = icmp ugt ptr %20, %10
  %22 = icmp eq ptr %20, %5
  %. = select i1 %22, ptr %21, ptr %7
  %.60 = select i1 %22, ptr %20, ptr %10
  %.152 = select i1 %.not59, ptr %., ptr %21
  %.1 = select i1 %.not59, ptr %.60, ptr %20
  br i1 %22, label %.loopexit, label %11

.preheader:                                       ; preds = %.lr.ph, %.preheader63
  %.253.lcssa = phi ptr [ %2, %.preheader63 ], [ %38, %.lr.ph ]
  %.pn.lcssa = phi ptr [ %0, %.preheader63 ], [ %.268, %.lr.ph ]
  %23 = icmp ult ptr %.pn.lcssa, %5
  br i1 %23, label %.lr.ph72, label %.loopexit

.lr.ph:                                           ; preds = %.lr.ph.preheader, %.lr.ph
  %.268 = phi ptr [ %.2, %.lr.ph ], [ %.264, %.lr.ph.preheader ]
  %.pn67 = phi ptr [ %.268, %.lr.ph ], [ %0, %.lr.ph.preheader ]
  %.25366 = phi ptr [ %38, %.lr.ph ], [ %2, %.lr.ph.preheader ]
  tail call void asm sideeffect "", "r,~{dirflag},~{fpsr},~{flags}"(ptr nonnull %.268) #54, !srcloc !94
  %24 = load i16, ptr %.25366, align 2
  %25 = uitofp i16 %24 to float
  store float %25, ptr %.pn67, align 4
  %26 = getelementptr inbounds nuw i8, ptr %.25366, i64 2
  %27 = load i16, ptr %26, align 2
  %28 = uitofp i16 %27 to float
  %29 = getelementptr inbounds nuw i8, ptr %.pn67, i64 4
  store float %28, ptr %29, align 4
  %30 = getelementptr inbounds nuw i8, ptr %.25366, i64 4
  %31 = load i16, ptr %30, align 2
  %32 = uitofp i16 %31 to float
  %33 = getelementptr inbounds nuw i8, ptr %.pn67, i64 8
  store float %32, ptr %33, align 4
  %34 = getelementptr inbounds nuw i8, ptr %.25366, i64 6
  %35 = load i16, ptr %34, align 2
  %36 = uitofp i16 %35 to float
  %37 = getelementptr inbounds nuw i8, ptr %.pn67, i64 12
  store float %36, ptr %37, align 4
  %38 = getelementptr inbounds nuw i8, ptr %.25366, i64 8
  %.2 = getelementptr inbounds nuw i8, ptr %.268, i64 16
  %.not = icmp ugt ptr %.2, %5
  br i1 %.not, label %.preheader, label %.lr.ph, !llvm.loop !95

.lr.ph72:                                         ; preds = %.preheader, %.lr.ph72
  %.371 = phi ptr [ %41, %.lr.ph72 ], [ %.pn.lcssa, %.preheader ]
  %.35470 = phi ptr [ %42, %.lr.ph72 ], [ %.253.lcssa, %.preheader ]
  tail call void asm sideeffect "", "r,~{dirflag},~{fpsr},~{flags}"(ptr nonnull %.371) #54, !srcloc !96
  %39 = load i16, ptr %.35470, align 2
  %40 = uitofp i16 %39 to float
  store float %40, ptr %.371, align 4
  %41 = getelementptr inbounds nuw i8, ptr %.371, i64 4
  %42 = getelementptr inbounds nuw i8, ptr %.35470, i64 2
  %43 = icmp ult ptr %41, %5
  br i1 %43, label %.lr.ph72, label %.loopexit, !llvm.loop !97

.loopexit:                                        ; preds = %.lr.ph72, %11, %.preheader
  ret void
}